	.file	"test_arm.c"
	.section	.rodata
.LC0:
	.string	"%d"
	.text
	.globl	main
	.type	main, @function
main:
.LFB0:
	.cfi_startproc
	pushq	%rbp
	.cfi_def_cfa_offset 16
	.cfi_offset 6, -16
	movq	%rsp, %rbp
	.cfi_def_cfa_register 6
	subq	$48, %rsp
	movl	%edi, -20(%rbp)
	movq	%rsi, -32(%rbp)
	movl	$2, %esi
	movl	$1, %edi
	call	add
	movl	%eax, %esi
	movl	$.LC0, %edi
	movl	$0, %eax
	call	printf
	movl	$3, %edx
	movl	$2, %esi
	movl	$1, %edi
	call	test_struct
	movq	%rax, %rcx
	movl	%edx, %eax
	movq	%rcx, -48(%rbp)
	movl	%eax, -40(%rbp)
	movq	-48(%rbp), %rax
	movq	%rax, -16(%rbp)
	movl	-40(%rbp), %eax
	movl	%eax, -8(%rbp)
	leave
	.cfi_def_cfa 7, 8
	ret
	.cfi_endproc
.LFE0:
	.size	main, .-main
	.type	add, @function
add:
.LFB1:
	.cfi_startproc
	pushq	%rbp
	.cfi_def_cfa_offset 16
	.cfi_offset 6, -16
	movq	%rsp, %rbp
	.cfi_def_cfa_register 6
	movl	%edi, -4(%rbp)
	movl	%esi, -8(%rbp)
#APP
# 20 "test_arm.c" 1
	addl %edi , %esi 
	movl %esi , %eax 
	
# 0 "" 2
#NO_APP
	popq	%rbp
	.cfi_def_cfa 7, 8
	ret
	.cfi_endproc
.LFE1:
	.size	add, .-add
	.type	test_struct, @function
test_struct:
.LFB2:
	.cfi_startproc
	pushq	%rbp
	.cfi_def_cfa_offset 16
	.cfi_offset 6, -16
	movq	%rsp, %rbp
	.cfi_def_cfa_register 6
	movl	%edi, -36(%rbp)
	movl	%esi, -40(%rbp)
	movl	%edx, -44(%rbp)
	movl	-36(%rbp), %eax
	movl	%eax, -32(%rbp)
	movl	-40(%rbp), %eax
	movl	%eax, -28(%rbp)
	movl	-44(%rbp), %eax
	movl	%eax, -24(%rbp)
	movq	-32(%rbp), %rax
	movq	%rax, -16(%rbp)
	movl	-24(%rbp), %eax
	movl	%eax, -8(%rbp)
	movq	-16(%rbp), %rax
	movl	-8(%rbp), %edx
	popq	%rbp
	.cfi_def_cfa 7, 8
	ret
	.cfi_endproc
.LFE2:
	.size	test_struct, .-test_struct
	.ident	"GCC: (SUSE Linux) 4.7.1 20120723 [gcc-4_7-branch revision 189773]"
	.section	.comment.SUSE.OPTs,"MS",@progbits,1
	.string	"ospwg"
	.section	.note.GNU-stack,"",@progbits
