	.file	"test2.c"
	.section	.rodata
.LC0:
	.string	"%zu %d %d\n"
	.text
	.globl	main
	.type	main, @function
main:
.LFB0:
	.cfi_startproc
	pushq	%rbp
	.cfi_def_cfa_offset 16
	.cfi_offset 6, -16
	movq	%rsp, %rbp
	.cfi_def_cfa_register 6
	subq	$32, %rsp
	movq	$0, -32(%rbp)
	movq	$0, -24(%rbp)
	movl	$1, -32(%rbp)
	movl	$2, -28(%rbp)
	movl	$3, -24(%rbp)
	movl	$0, %eax
	call	func
	movl	$0, %eax
	call	func2
	movl	-20(%rbp), %eax
	movl	-4(%rbp), %edx
	movl	%edx, %ecx
	movl	%eax, %edx
	movl	$16, %esi
	movl	$.LC0, %edi
	movl	$0, %eax
	call	printf
	movl	$0, %eax
	leave
	.cfi_def_cfa 7, 8
	ret
	.cfi_endproc
.LFE0:
	.size	main, .-main
	.section	.rodata
.LC1:
	.string	"%d \n"
	.text
	.globl	func
	.type	func, @function
func:
.LFB1:
	.cfi_startproc
	pushq	%rbp
	.cfi_def_cfa_offset 16
	.cfi_offset 6, -16
	movq	%rsp, %rbp
	.cfi_def_cfa_register 6
	subq	$32, %rsp
	movl	$3, -4(%rbp)
	movq	$0, -32(%rbp)
	movq	$0, -24(%rbp)
	movl	$1, -32(%rbp)
	movl	-20(%rbp), %eax
	movl	%eax, %esi
	movl	$.LC1, %edi
	movl	$0, %eax
	call	printf
	leave
	.cfi_def_cfa 7, 8
	ret
	.cfi_endproc
.LFE1:
	.size	func, .-func
	.section	.rodata
.LC2:
	.string	"%d + %d = %d\n"
	.text
	.globl	func2
	.type	func2, @function
func2:
.LFB2:
	.cfi_startproc
	pushq	%rbp
	.cfi_def_cfa_offset 16
	.cfi_offset 6, -16
	movq	%rsp, %rbp
	.cfi_def_cfa_register 6
	subq	$16, %rsp
	movl	-8(%rbp), %eax
	movl	-4(%rbp), %edx
	addl	%edx, %eax
	movl	%eax, -12(%rbp)
	movl	-12(%rbp), %ecx
	movl	-8(%rbp), %edx
	movl	-4(%rbp), %eax
	movl	%eax, %esi
	movl	$.LC2, %edi
	movl	$0, %eax
	call	printf
	leave
	.cfi_def_cfa 7, 8
	ret
	.cfi_endproc
.LFE2:
	.size	func2, .-func2
	.ident	"GCC: (SUSE Linux) 4.7.1 20120723 [gcc-4_7-branch revision 189773]"
	.section	.comment.SUSE.OPTs,"MS",@progbits,1
	.string	"ospwg"
	.section	.note.GNU-stack,"",@progbits
